target datalayout = "e-m:e-p270:32:32-p271:32:32-p272:64:64-i64:64-i128:128-f80:128-n8:16:32:64-S128"
target triple = "x86_64-pc-linux-gnu"

%class.QString = type { ptr }
%class.QObject = type { ptr, %class.QScopedPointer }
%class.QScopedPointer = type { ptr }
%class.QColor = type <{ i32, %"union.QColor::CT", [2 x i8] }>
%"union.QColor::CT" = type { %struct.anon }
%struct.anon = type { i16, i16, i16, i16, i16 }
%class.QFlags = type { i32 }
%class.QualityMapperDialog = type { %class.QDockWidget, %"class.Ui::QualityMapperDialogClass", ptr, ptr, %class.QGraphicsScene, [3 x ptr], double, i8, i8, %class.QList, i32, ptr, ptr, ptr, %class.QGraphicsScene, ptr, [3 x %class.QList.22], ptr, %class.QString, %class.QList, %class.QList, i8, %class.QList.25, %class.QList, ptr, ptr }
%class.QDockWidget = type { %class.QWidget }
%class.QWidget = type { %class.QObject, %class.QPaintDevice, ptr }
%class.QPaintDevice = type { ptr, i16, ptr }
%"class.Ui::QualityMapperDialogClass" = type { %class.Ui_QualityMapperDialogClass }
%class.Ui_QualityMapperDialogClass = type { ptr, ptr, ptr, ptr, ptr, ptr, ptr, ptr, ptr, ptr, ptr, ptr, ptr, ptr, ptr, ptr, ptr, ptr, ptr, ptr, ptr, ptr, ptr, ptr, ptr, ptr, ptr, ptr, ptr, ptr, ptr, ptr, ptr, ptr, ptr, ptr, ptr, ptr, ptr, ptr, ptr, ptr, ptr, ptr, ptr, ptr, ptr, ptr, ptr, ptr, ptr, ptr, ptr, ptr, ptr, ptr, ptr, ptr, ptr, ptr, ptr, ptr, ptr, ptr, ptr, ptr, ptr, ptr }
%class.QGraphicsScene = type { %class.QObject }
%class.QList.22 = type { %union.anon.24 }
%union.anon.24 = type { %struct.QListData }
%struct.QListData = type { ptr }
%class.QList.25 = type { %union.anon.27 }
%union.anon.27 = type { %struct.QListData }
%class.QList = type { %union.anon }
%union.anon = type { %struct.QListData }
%class.QFont = type <{ %class.QExplicitlySharedDataPointer, i32, [4 x i8] }>
%class.QExplicitlySharedDataPointer = type { ptr }
%class.QPixmap = type { %class.QPaintDevice, %class.QExplicitlySharedDataPointer.171 }
%class.QExplicitlySharedDataPointer.171 = type { ptr }
%class.QFlags.172 = type { i32 }
%class.QRect = type { i32, i32, i32, i32 }
%class.QWidgetData = type { i64, i32, %class.QFlags, i32, %class.QRect, [4 x i8], %class.QPalette, %class.QFont, %class.QRect }
%class.QPalette = type <{ ptr, %union.anon.173, [4 x i8] }>
%union.anon.173 = type { %"struct.QPalette::Data" }
%"struct.QPalette::Data" = type { i32 }
%class.QImage = type { %class.QPaintDevice, ptr }

; Function Attrs: mustprogress nounwind uwtable
define linkonce_odr noundef i32 @_ZNK5QRect5widthEv(ptr noundef nonnull align 4 dereferenceable(16) %0) #4 comdat align 2 {
  %2 = alloca ptr, align 8
  store ptr %0, ptr %2, align 8
  %3 = load ptr, ptr %2, align 8
  %4 = getelementptr inbounds %class.QRect, ptr %3, i32 0, i32 2
  %5 = load i32, ptr %4, align 4
  %6 = getelementptr inbounds %class.QRect, ptr %3, i32 0, i32 0
  %7 = load i32, ptr %6, align 4
  %8 = sub nsw i32 %5, %7
  %9 = add nsw i32 %8, 1
  ret i32 %9
}

; Function Attrs: mustprogress nounwind uwtable
define linkonce_odr void @_ZN6QFlagsIN2Qt19ImageConversionFlagEEC2ES1_(ptr noundef nonnull align 4 dereferenceable(4) %0, i32 noundef %1) unnamed_addr #4 comdat align 2 {
  %3 = alloca ptr, align 8
  %4 = alloca i32, align 4
  store ptr %0, ptr %3, align 8
  store i32 %1, ptr %4, align 4
  %5 = load ptr, ptr %3, align 8
  %6 = getelementptr inbounds %class.QFlags.172, ptr %5, i32 0, i32 0
  %7 = load i32, ptr %4, align 4
  store i32 %7, ptr %6, align 4
  ret void
}

; Function Attrs: mustprogress nounwind uwtable
define linkonce_odr noundef i32 @_ZNK7QWidget5widthEv(ptr noundef nonnull align 8 dereferenceable(48) %0) #4 comdat align 2 {
  %2 = alloca ptr, align 8
  store ptr %0, ptr %2, align 8
  %3 = load ptr, ptr %2, align 8
  %4 = getelementptr inbounds %class.QWidget, ptr %3, i32 0, i32 2
  %5 = load ptr, ptr %4, align 8
  %6 = getelementptr inbounds %class.QWidgetData, ptr %5, i32 0, i32 4
  %7 = call noundef i32 @_ZNK5QRect5widthEv(ptr noundef nonnull align 4 dereferenceable(16) %6) #3
  ret i32 %7
}

; Function Attrs: mustprogress uwtable
define void @_ZN19QualityMapperDialog15updateColorBandEv(ptr noundef nonnull align 8 dereferenceable(824) %0) #5 align 2 personality ptr @__gxx_personality_v0 {
  %2 = alloca ptr, align 8
  %3 = alloca ptr, align 8
  %4 = alloca %class.QImage, align 8
  %5 = alloca float, align 4
  %6 = alloca i32, align 4
  %7 = alloca ptr, align 8
  %8 = alloca i32, align 4
  %9 = alloca %class.QPixmap, align 8
  %10 = alloca %class.QFlags.172, align 4
  store ptr %0, ptr %2, align 8
  %11 = load ptr, ptr %2, align 8
  %12 = getelementptr inbounds %class.QualityMapperDialog, ptr %11, i32 0, i32 12
  %13 = load ptr, ptr %12, align 8
  %14 = call noundef ptr @_ZN16TransferFunction14buildColorBandEv(ptr noundef nonnull align 8 dereferenceable(16492) %13)
  store ptr %14, ptr %3, align 8
  %15 = getelementptr inbounds %class.QualityMapperDialog, ptr %11, i32 0, i32 1
  %16 = getelementptr inbounds %class.Ui_QualityMapperDialogClass, ptr %15, i32 0, i32 8
  %17 = load ptr, ptr %16, align 8
  %18 = call noundef i32 @_ZNK7QWidget5widthEv(ptr noundef nonnull align 8 dereferenceable(48) %17)
  call void @_ZN6QImageC1EiiNS_6FormatE(ptr noundef nonnull align 8 dereferenceable(32) %4, i32 noundef %18, i32 noundef 1, i32 noundef 4)
  %19 = getelementptr inbounds %class.QualityMapperDialog, ptr %11, i32 0, i32 1
  %20 = getelementptr inbounds %class.Ui_QualityMapperDialogClass, ptr %19, i32 0, i32 8
  %21 = load ptr, ptr %20, align 8
  %22 = call noundef i32 @_ZNK7QWidget5widthEv(ptr noundef nonnull align 8 dereferenceable(48) %21)
  %23 = sitofp i32 %22 to float
  %24 = fdiv float 1.024000e+03, %23
  store float %24, ptr %5, align 4
  store i32 0, ptr %6, align 4
  br label %25

25:                                               ; preds = %42, %1
  %26 = load i32, ptr %6, align 4
  %27 = invoke noundef i32 @_ZNK6QImage5widthEv(ptr noundef nonnull align 8 dereferenceable(32) %4)
          to label %28 unwind label %45

28:                                               ; preds = %25
  %29 = icmp slt i32 %26, %27
  br i1 %29, label %30, label %49

30:                                               ; preds = %28
  %31 = load i32, ptr %6, align 4
  %32 = load ptr, ptr %3, align 8
  %33 = load i32, ptr %6, align 4
  %34 = sitofp i32 %33 to float
  %35 = load float, ptr %5, align 4
  %36 = fmul float %34, %35
  %37 = fptosi float %36 to i32
  %38 = sext i32 %37 to i64
  %39 = getelementptr inbounds %class.QColor, ptr %32, i64 %38
  %40 = call noundef i32 @_ZNK6QColor3rgbEv(ptr noundef nonnull align 4 dereferenceable(14) %39) #3
  invoke void @_ZN6QImage8setPixelEiij(ptr noundef nonnull align 8 dereferenceable(32) %4, i32 noundef %31, i32 noundef 0, i32 noundef %40)
          to label %41 unwind label %45

41:                                               ; preds = %30
  br label %42

42:                                               ; preds = %41
  %43 = load i32, ptr %6, align 4
  %44 = add nsw i32 %43, 1
  store i32 %44, ptr %6, align 4
  br label %25, !llvm.loop !52

45:                                               ; preds = %49, %30, %25
  %46 = landingpad { ptr, i32 }
          cleanup
  %47 = extractvalue { ptr, i32 } %46, 0
  store ptr %47, ptr %7, align 8
  %48 = extractvalue { ptr, i32 } %46, 1
  store i32 %48, ptr %8, align 4
  br label %61

49:                                               ; preds = %28
  %50 = getelementptr inbounds %class.QualityMapperDialog, ptr %11, i32 0, i32 1
  %51 = getelementptr inbounds %class.Ui_QualityMapperDialogClass, ptr %50, i32 0, i32 8
  %52 = load ptr, ptr %51, align 8
  call void @_ZN6QFlagsIN2Qt19ImageConversionFlagEEC2ES1_(ptr noundef nonnull align 4 dereferenceable(4) %10, i32 noundef 0) #3
  %53 = getelementptr inbounds %class.QFlags.172, ptr %10, i32 0, i32 0
  %54 = load i32, ptr %53, align 4
  invoke void @_ZN7QPixmap9fromImageERK6QImage6QFlagsIN2Qt19ImageConversionFlagEE(ptr dead_on_unwind writable sret(%class.QPixmap) align 8 %9, ptr noundef nonnull align 8 dereferenceable(32) %4, i32 %54)
          to label %55 unwind label %45

55:                                               ; preds = %49
  invoke void @_ZN6QLabel9setPixmapERK7QPixmap(ptr noundef nonnull align 8 dereferenceable(48) %52, ptr noundef nonnull align 8 dereferenceable(32) %9)
          to label %56 unwind label %57

56:                                               ; preds = %55
  call void @_ZN7QPixmapD1Ev(ptr noundef nonnull align 8 dereferenceable(32) %9) #3
  call void @_ZN6QImageD1Ev(ptr noundef nonnull align 8 dereferenceable(32) %4) #3
  ret void

57:                                               ; preds = %55
  %58 = landingpad { ptr, i32 }
          cleanup
  %59 = extractvalue { ptr, i32 } %58, 0
  store ptr %59, ptr %7, align 8
  %60 = extractvalue { ptr, i32 } %58, 1
  store i32 %60, ptr %8, align 4
  call void @_ZN7QPixmapD1Ev(ptr noundef nonnull align 8 dereferenceable(32) %9) #3
  br label %61

61:                                               ; preds = %57, %45
  call void @_ZN6QImageD1Ev(ptr noundef nonnull align 8 dereferenceable(32) %4) #3
  br label %62

62:                                               ; preds = %61
  %63 = load ptr, ptr %7, align 8
  %64 = load i32, ptr %8, align 4
  %65 = insertvalue { ptr, i32 } poison, ptr %63, 0
  %66 = insertvalue { ptr, i32 } %65, i32 %64, 1
  resume { ptr, i32 } %66
}