; Function Attrs: mustprogress uwtable
define void @_ZN19QualityMapperDialog15updateColorBandEv(ptr nocapture noundef nonnull readonly align 8 dereferenceable(824) %0) local_unnamed_addr #9 align 2 personality ptr @__gxx_personality_v0 {
  %2 = alloca %class.QImage, align 8
  %3 = alloca %class.QPixmap, align 8
  %4 = getelementptr inbounds i8, ptr %0, i64 688
  %5 = load ptr, ptr %4, align 8
  %6 = tail call noundef ptr @_ZN16TransferFunction14buildColorBandEv(ptr noundef nonnull align 8 dereferenceable(16492) %5)
  %7 = getelementptr inbounds i8, ptr %0, i64 112
  %8 = load ptr, ptr %7, align 8
  %9 = getelementptr inbounds i8, ptr %8, i64 40
  %10 = load ptr, ptr %9, align 8
  %11 = getelementptr inbounds i8, ptr %10, i64 20
  %12 = getelementptr inbounds i8, ptr %10, i64 28
  %13 = load i32, ptr %12, align 4
  %14 = load i32, ptr %11, align 4
  %15 = add i32 %13, 1
  %16 = sub i32 %15, %14
  call void @_ZN6QImageC1EiiNS_6FormatE(ptr noundef nonnull align 8 dereferenceable(32) %2, i32 noundef %16, i32 noundef 1, i32 noundef 4)
  %17 = load ptr, ptr %7, align 8
  %18 = getelementptr inbounds i8, ptr %17, i64 40
  %19 = load ptr, ptr %18, align 8
  %20 = getelementptr inbounds i8, ptr %19, i64 20
  %21 = getelementptr inbounds i8, ptr %19, i64 28
  %22 = load i32, ptr %21, align 4
  %23 = load i32, ptr %20, align 4
  %24 = add i32 %22, 1
  %25 = sub i32 %24, %23
  %26 = sitofp i32 %25 to float
  %27 = fdiv float 1.024000e+03, %26
  br label %28

28:                                               ; preds = %39, %1
  %.09 = phi i32 [ 0, %1 ], [ %40, %39 ]
  %29 = invoke noundef i32 @_ZNK6QImage5widthEv(ptr noundef nonnull align 8 dereferenceable(32) %2)
          to label %30 unwind label %.loopexit

30:                                               ; preds = %28
  %31 = icmp slt i32 %.09, %29
  br i1 %31, label %32, label %41

32:                                               ; preds = %30
  %33 = sitofp i32 %.09 to float
  %34 = fmul float %27, %33
  %35 = fptosi float %34 to i32
  %36 = sext i32 %35 to i64
  %37 = getelementptr inbounds %class.QColor, ptr %6, i64 %36
  %38 = call noundef i32 @_ZNK6QColor3rgbEv(ptr noundef nonnull align 4 dereferenceable(14) %37) #23
  invoke void @_ZN6QImage8setPixelEiij(ptr noundef nonnull align 8 dereferenceable(32) %2, i32 noundef %.09, i32 noundef 0, i32 noundef %38)
          to label %39 unwind label %.loopexit

39:                                               ; preds = %32
  %40 = add nuw nsw i32 %.09, 1
  br label %28, !llvm.loop !128

.loopexit:                                        ; preds = %28, %32
  %lpad.loopexit = landingpad { ptr, i32 }
          cleanup
  br label %47

.loopexit.split-lp:                               ; preds = %41
  %lpad.loopexit.split-lp = landingpad { ptr, i32 }
          cleanup
  br label %47

41:                                               ; preds = %30
  %42 = load ptr, ptr %7, align 8
  invoke void @_ZN7QPixmap9fromImageERK6QImage6QFlagsIN2Qt19ImageConversionFlagEE(ptr dead_on_unwind nonnull writable sret(%class.QPixmap) align 8 %3, ptr noundef nonnull align 8 dereferenceable(32) %2, i32 0)
          to label %43 unwind label %.loopexit.split-lp

43:                                               ; preds = %41
  invoke void @_ZN6QLabel9setPixmapERK7QPixmap(ptr noundef nonnull align 8 dereferenceable(48) %42, ptr noundef nonnull align 8 dereferenceable(32) %3)
          to label %44 unwind label %45

44:                                               ; preds = %43
  call void @_ZN7QPixmapD1Ev(ptr noundef nonnull align 8 dereferenceable(32) %3) #23
  call void @_ZN6QImageD1Ev(ptr noundef nonnull align 8 dereferenceable(32) %2) #23
  ret void

45:                                               ; preds = %43
  %46 = landingpad { ptr, i32 }
          cleanup
  call void @_ZN7QPixmapD1Ev(ptr noundef nonnull align 8 dereferenceable(32) %3) #23
  br label %47

47:                                               ; preds = %.loopexit, %.loopexit.split-lp, %45
  %.pn = phi { ptr, i32 } [ %46, %45 ], [ %lpad.loopexit, %.loopexit ], [ %lpad.loopexit.split-lp, %.loopexit.split-lp ]
  call void @_ZN6QImageD1Ev(ptr noundef nonnull align 8 dereferenceable(32) %2) #23
  resume { ptr, i32 } %.pn
}